; Function Attrs: mustprogress uwtable
define void @_ZNK6casadi11GenericTypecvSt6vectorIiSaIiEEEv(ptr dead_on_unwind noalias writable sret(%"class.std::vector.50") align 8 %0, ptr noundef nonnull align 8 dereferenceable(8) %1) local_unnamed_addr #3 align 2 personality ptr @__gxx_personality_v0 {
  %3 = alloca %"class.std::vector", align 8
  call void @llvm.lifetime.start.p0(i64 24, ptr nonnull %3) #23
  call void @_ZNK6casadi11GenericType13to_int_vectorEv(ptr dead_on_unwind nonnull writable sret(%"class.std::vector") align 8 %3, ptr noundef nonnull align 8 dereferenceable(8) %1)
  invoke void @_ZN6casadi6to_intERKSt6vectorIxSaIxEE(ptr dead_on_unwind writable sret(%"class.std::vector.50") align 8 %0, ptr noundef nonnull align 8 dereferenceable(24) %3)
          to label %4 unwind label %12

4:                                                ; preds = %2
  %5 = load ptr, ptr %3, align 8, !tbaa !9
  %.not.i.i.i = icmp eq ptr %5, null
  br i1 %.not.i.i.i, label %_ZNSt6vectorIiSaIiEED2Ev.exit, label %6

6:                                                ; preds = %4
  %7 = getelementptr inbounds nuw i8, ptr %3, i64 16
  %8 = load ptr, ptr %7, align 8, !tbaa !13
  %9 = ptrtoint ptr %8 to i64
  %10 = ptrtoint ptr %5 to i64
  %11 = sub i64 %9, %10
  call void @_ZdlPvm(ptr noundef nonnull %5, i64 noundef %11) #24
  br label %_ZNSt6vectorIiSaIiEED2Ev.exit

_ZNSt6vectorIiSaIiEED2Ev.exit:                    ; preds = %6, %4
  call void @llvm.lifetime.end.p0(i64 24, ptr nonnull %3) #23
  ret void

12:                                               ; preds = %2
  %13 = landingpad { ptr, i32 }
          cleanup
  %14 = load ptr, ptr %3, align 8, !tbaa !9
  %.not.i.i.i5 = icmp eq ptr %14, null
  br i1 %.not.i.i.i5, label %_ZNSt6vectorIiSaIiEED2Ev.exit8, label %15

15:                                               ; preds = %12
  %16 = getelementptr inbounds nuw i8, ptr %3, i64 16
  %17 = load ptr, ptr %16, align 8, !tbaa !13
  %18 = ptrtoint ptr %17 to i64
  %19 = ptrtoint ptr %14 to i64
  %20 = sub i64 %18, %19
  call void @_ZdlPvm(ptr noundef nonnull %14, i64 noundef %20) #24
  br label %_ZNSt6vectorIiSaIiEED2Ev.exit8

_ZNSt6vectorIiSaIiEED2Ev.exit8:                   ; preds = %12, %15
  call void @llvm.lifetime.end.p0(i64 24, ptr nonnull %3) #23
  resume { ptr, i32 } %13
}